
/Users/gigi/workspace/x-heep/x-alp/hw/ip/bootrom/bootrom.elf:     file format elf64-littleriscv


Disassembly of section .text:

0000000000000000 <_start>:
   0:	4081                	li	ra,0
   2:	4201                	li	tp,0
   4:	4281                	li	t0,0
   6:	4301                	li	t1,0
   8:	4381                	li	t2,0
   a:	4401                	li	s0,0
   c:	4481                	li	s1,0
   e:	4501                	li	a0,0
  10:	4581                	li	a1,0
  12:	4601                	li	a2,0
  14:	4681                	li	a3,0
  16:	4701                	li	a4,0
  18:	4781                	li	a5,0
  1a:	4801                	li	a6,0
  1c:	4881                	li	a7,0
  1e:	4901                	li	s2,0
  20:	4981                	li	s3,0
  22:	4a01                	li	s4,0
  24:	4a81                	li	s5,0
  26:	4b01                	li	s6,0
  28:	4b81                	li	s7,0
  2a:	4c01                	li	s8,0
  2c:	4c81                	li	s9,0
  2e:	4d01                	li	s10,0
  30:	4d81                	li	s11,0
  32:	4e01                	li	t3,0
  34:	4e81                	li	t4,0
  36:	4f01                	li	t5,0
  38:	4f81                	li	t6,0

000000000000003a <_boot>:
  3a:	4281                	li	t0,0
  3c:	4301                	li	t1,0
  3e:	0ff0000f          	fence
  42:	0000100f          	fence.i
  46:	100005b7          	lui	a1,0x10000

000000000000004a <_boot_wait_loop>:
  4a:	00c5a283          	lw	t0,12(a1) # 1000000c <_end+0xfffff6c>
  4e:	00029363          	bnez	t0,54 <_boot_continue>
  52:	bfe5                	j	4a <_boot_wait_loop>

0000000000000054 <_boot_continue>:
  54:	0ff0000f          	fence
  58:	4988                	lw	a0,16(a1)
  5a:	0000100f          	fence.i
  5e:	000500e7          	jalr	a0
  62:	0001                	nop
  64:	00000013          	nop
  68:	00000013          	nop
  6c:	00000013          	nop

0000000000000070 <_exit>:
  70:	0506                	slli	a0,a0,0x1
  72:	00156513          	ori	a0,a0,1
  76:	100005b7          	lui	a1,0x10000
  7a:	c1c8                	sw	a0,4(a1)
  7c:	9002                	ebreak
  7e:	10500073          	wfi
  82:	bff5                	j	7e <_exit+0xe>
  84:	00000013          	nop
  88:	00000013          	nop
  8c:	00000013          	nop

0000000000000090 <boot_next_stage>:
  90:	000500e7          	jalr	a0
  94:	8082                	ret
	...
